target datalayout = "e-m:e-p270:32:32-p271:32:32-p272:64:64-i64:64-i128:128-f80:128-n8:16:32:64-S128"
target triple = "x86_64-pc-linux-gnu"

%struct.string_list = type { ptr, i64, i64, i8, ptr }
%struct.string_list_item = type { ptr, ptr }
%struct.menu_opts = type { ptr, ptr, i32 }
%struct.menu_stuff = type { i32, i32, ptr }

@del_list = internal global { ptr, i64, i64, i8, [7 x i8], ptr } { ptr null, i64 0, i64 0, i8 1, [7 x i8] zeroinitializer, ptr null }, align 8
@.str.49 = private unnamed_addr constant [23 x i8] c"Select items to delete\00", align 1

; Function Attrs: nounwind uwtable
define internal i32 @select_by_numbers_cmd() #0 {
  %1 = alloca %struct.menu_opts, align 8
  %2 = alloca %struct.menu_stuff, align 8
  %3 = alloca ptr, align 8
  %4 = alloca ptr, align 8
  %5 = alloca i32, align 4
  %6 = alloca i32, align 4
  call void @llvm.lifetime.start.p0(i64 24, ptr %1) #11
  call void @llvm.lifetime.start.p0(i64 16, ptr %2) #11
  call void @llvm.lifetime.start.p0(i64 8, ptr %3) #11
  call void @llvm.lifetime.start.p0(i64 8, ptr %4) #11
  call void @llvm.lifetime.start.p0(i64 4, ptr %5) #11
  call void @llvm.lifetime.start.p0(i64 4, ptr %6) #11
  %7 = getelementptr inbounds nuw %struct.menu_opts, ptr %1, i32 0, i32 0
  store ptr null, ptr %7, align 8, !tbaa !98
  %8 = getelementptr inbounds nuw %struct.menu_opts, ptr %1, i32 0, i32 1
  store ptr @.str.49, ptr %8, align 8, !tbaa !100
  %9 = getelementptr inbounds nuw %struct.menu_opts, ptr %1, i32 0, i32 2
  store i32 0, ptr %9, align 8, !tbaa !101
  %10 = getelementptr inbounds nuw %struct.menu_stuff, ptr %2, i32 0, i32 0
  store i32 1, ptr %10, align 8, !tbaa !102
  %11 = getelementptr inbounds nuw %struct.menu_stuff, ptr %2, i32 0, i32 2
  store ptr @del_list, ptr %11, align 8, !tbaa !104
  %12 = load i64, ptr getelementptr inbounds nuw (%struct.string_list, ptr @del_list, i32 0, i32 1), align 8, !tbaa !66
  %13 = trunc i64 %12 to i32
  %14 = getelementptr inbounds nuw %struct.menu_stuff, ptr %2, i32 0, i32 1
  store i32 %13, ptr %14, align 4, !tbaa !105
  %15 = call ptr @list_and_choose(ptr noundef %1, ptr noundef %2)
  store ptr %15, ptr %4, align 8, !tbaa !106
  %16 = load ptr, ptr @del_list, align 8, !tbaa !69
  store ptr %16, ptr %3, align 8, !tbaa !82
  store i32 0, ptr %5, align 4, !tbaa !15
  store i32 0, ptr %6, align 4, !tbaa !15
  br label %17

17:                                               ; preds = %57, %0
  %18 = load i32, ptr %5, align 4, !tbaa !15
  %19 = sext i32 %18 to i64
  %20 = load i64, ptr getelementptr inbounds nuw (%struct.string_list, ptr @del_list, i32 0, i32 1), align 8, !tbaa !66
  %21 = icmp ult i64 %19, %20
  br i1 %21, label %22, label %60

22:                                               ; preds = %17
  %23 = load i32, ptr %5, align 4, !tbaa !15
  %24 = load ptr, ptr %4, align 8, !tbaa !106
  %25 = load i32, ptr %6, align 4, !tbaa !15
  %26 = sext i32 %25 to i64
  %27 = getelementptr inbounds i32, ptr %24, i64 %26
  %28 = load i32, ptr %27, align 4, !tbaa !15
  %29 = icmp slt i32 %23, %28
  br i1 %29, label %30, label %37

30:                                               ; preds = %22
  %31 = load ptr, ptr %3, align 8, !tbaa !82
  %32 = load i32, ptr %5, align 4, !tbaa !15
  %33 = sext i32 %32 to i64
  %34 = getelementptr inbounds %struct.string_list_item, ptr %31, i64 %33
  %35 = getelementptr inbounds nuw %struct.string_list_item, ptr %34, i32 0, i32 0
  %36 = load ptr, ptr %35, align 8, !tbaa !70
  store i8 0, ptr %36, align 1, !tbaa !90
  br label %56

37:                                               ; preds = %22
  %38 = load i32, ptr %5, align 4, !tbaa !15
  %39 = load ptr, ptr %4, align 8, !tbaa !106
  %40 = load i32, ptr %6, align 4, !tbaa !15
  %41 = sext i32 %40 to i64
  %42 = getelementptr inbounds i32, ptr %39, i64 %41
  %43 = load i32, ptr %42, align 4, !tbaa !15
  %44 = icmp eq i32 %38, %43
  br i1 %44, label %45, label %48

45:                                               ; preds = %37
  %46 = load i32, ptr %6, align 4, !tbaa !15
  %47 = add nsw i32 %46, 1
  store i32 %47, ptr %6, align 4, !tbaa !15
  br label %57

48:                                               ; preds = %37
  %49 = load ptr, ptr %3, align 8, !tbaa !82
  %50 = load i32, ptr %5, align 4, !tbaa !15
  %51 = sext i32 %50 to i64
  %52 = getelementptr inbounds %struct.string_list_item, ptr %49, i64 %51
  %53 = getelementptr inbounds nuw %struct.string_list_item, ptr %52, i32 0, i32 0
  %54 = load ptr, ptr %53, align 8, !tbaa !70
  store i8 0, ptr %54, align 1, !tbaa !90
  br label %55

55:                                               ; preds = %48
  br label %56

56:                                               ; preds = %55, %30
  br label %57

57:                                               ; preds = %56, %45
  %58 = load i32, ptr %5, align 4, !tbaa !15
  %59 = add nsw i32 %58, 1
  store i32 %59, ptr %5, align 4, !tbaa !15
  br label %17, !llvm.loop !130

60:                                               ; preds = %17
  call void @string_list_remove_empty_items(ptr noundef @del_list, i32 noundef 0)
  %61 = load ptr, ptr %4, align 8, !tbaa !106
  call void @free(ptr noundef %61) #11
  call void @llvm.lifetime.end.p0(i64 4, ptr %6) #11
  call void @llvm.lifetime.end.p0(i64 4, ptr %5) #11
  call void @llvm.lifetime.end.p0(i64 8, ptr %4) #11
  call void @llvm.lifetime.end.p0(i64 8, ptr %3) #11
  call void @llvm.lifetime.end.p0(i64 16, ptr %2) #11
  call void @llvm.lifetime.end.p0(i64 24, ptr %1) #11
  ret i32 0
}