; Function Attrs: nounwind uwtable
define internal noundef i32 @select_by_numbers_cmd() #0 {
  %1 = alloca %struct.menu_opts, align 8
  %2 = alloca %struct.menu_stuff, align 8
  call void @llvm.lifetime.start.p0(i64 24, ptr nonnull %1) #16
  call void @llvm.lifetime.start.p0(i64 16, ptr nonnull %2) #16
  store ptr null, ptr %1, align 8, !tbaa !77
  %3 = getelementptr inbounds nuw i8, ptr %1, i64 8
  store ptr @.str.49, ptr %3, align 8, !tbaa !79
  %4 = getelementptr inbounds nuw i8, ptr %1, i64 16
  store i32 0, ptr %4, align 8, !tbaa !80
  store i32 1, ptr %2, align 8, !tbaa !81
  %5 = getelementptr inbounds nuw i8, ptr %2, i64 8
  store ptr @del_list, ptr %5, align 8, !tbaa !83
  %6 = load i64, ptr getelementptr inbounds nuw (i8, ptr @del_list, i64 8), align 8, !tbaa !56
  %7 = trunc i64 %6 to i32
  %8 = getelementptr inbounds nuw i8, ptr %2, i64 4
  store i32 %7, ptr %8, align 4, !tbaa !84
  %9 = call fastcc ptr @list_and_choose(ptr noundef %1, ptr noundef %2)
  %10 = load ptr, ptr @del_list, align 8, !tbaa !59
  %11 = load i64, ptr getelementptr inbounds nuw (i8, ptr @del_list, i64 8), align 8, !tbaa !56
  %.not = icmp eq i64 %11, 0
  br i1 %.not, label %._crit_edge, label %.lr.ph

.lr.ph:                                           ; preds = %0, %28
  %indvars.iv = phi i64 [ %indvars.iv.next, %28 ], [ 0, %0 ]
  %.017 = phi i32 [ %.1, %28 ], [ 0, %0 ]
  %12 = sext i32 %.017 to i64
  %13 = getelementptr inbounds i32, ptr %9, i64 %12
  %14 = load i32, ptr %13, align 4, !tbaa !11
  %15 = sext i32 %14 to i64
  %16 = icmp slt i64 %indvars.iv, %15
  br i1 %16, label %17, label %20

17:                                               ; preds = %.lr.ph
  %18 = getelementptr inbounds nuw %struct.string_list_item, ptr %10, i64 %indvars.iv
  %19 = load ptr, ptr %18, align 8, !tbaa !60
  store i8 0, ptr %19, align 1, !tbaa !90
  br label %28

20:                                               ; preds = %.lr.ph
  %21 = zext i32 %14 to i64
  %22 = icmp eq i64 %indvars.iv, %21
  br i1 %22, label %23, label %25

23:                                               ; preds = %20
  %24 = add nsw i32 %.017, 1
  br label %28

25:                                               ; preds = %20
  %26 = getelementptr inbounds nuw %struct.string_list_item, ptr %10, i64 %indvars.iv
  %27 = load ptr, ptr %26, align 8, !tbaa !60
  store i8 0, ptr %27, align 1, !tbaa !90
  br label %28

28:                                               ; preds = %17, %25, %23
  %.1 = phi i32 [ %.017, %17 ], [ %24, %23 ], [ %.017, %25 ]
  %indvars.iv.next = add nuw nsw i64 %indvars.iv, 1
  %29 = load i64, ptr getelementptr inbounds nuw (i8, ptr @del_list, i64 8), align 8, !tbaa !56
  %30 = icmp ugt i64 %29, %indvars.iv.next
  br i1 %30, label %.lr.ph, label %._crit_edge, !llvm.loop !105

._crit_edge:                                      ; preds = %28, %0
  tail call void @string_list_remove_empty_items(ptr noundef nonnull @del_list, i32 noundef 0) #16
  tail call void @free(ptr noundef %9) #16
  call void @llvm.lifetime.end.p0(i64 16, ptr nonnull %2) #16
  call void @llvm.lifetime.end.p0(i64 24, ptr nonnull %1) #16
  ret i32 0
}